; ModuleID = 'source-C-CXX/30/1793.c'
source_filename = "source-C-CXX/30/1793.c"
target datalayout = "e-m:e-p270:32:32-p271:32:32-p272:64:64-i64:64-f80:128-n8:16:32:64-S128"
target triple = "x86_64-pc-linux-gnu"

%struct.student = type { [16 x i8], [64 x i8], %struct.student* }

@n = dso_local local_unnamed_addr global i32 0, align 4
@.str = private unnamed_addr constant [3 x i8] c"%s\00", align 1
@.str.1 = private unnamed_addr constant [4 x i8] c"end\00", align 1

; Function Attrs: nounwind sspstrong uwtable
define dso_local %struct.student* @creat() local_unnamed_addr #0 {
  store i32 0, i32* @n, align 4, !tbaa !5
  %1 = tail call noalias align 16 dereferenceable_or_null(100) i8* @malloc(i64 100) #6
  %2 = bitcast i8* %1 to %struct.student*
  %3 = getelementptr inbounds %struct.student, %struct.student* %2, i64 0, i32 0, i64 0
  %4 = tail call i32 (i8*, ...) @__isoc99_scanf(i8* getelementptr inbounds ([3 x i8], [3 x i8]* @.str, i64 0, i64 0), i8* %3)
  %5 = tail call i32 @strcmp(i8* noundef nonnull dereferenceable(1) %3, i8* noundef nonnull dereferenceable(4) getelementptr inbounds ([4 x i8], [4 x i8]* @.str.1, i64 0, i64 0)) #7
  %6 = icmp eq i32 %5, 0
  br i1 %6, label %23, label %7

7:                                                ; preds = %0, %7
  %8 = phi %struct.student* [ %9, %7 ], [ %2, %0 ]
  %9 = phi %struct.student* [ %18, %7 ], [ %2, %0 ]
  %10 = getelementptr inbounds %struct.student, %struct.student* %9, i64 0, i32 1, i64 0
  %11 = tail call i32 (i8*, ...) bitcast (i32 (...)* @gets to i32 (i8*, ...)*)(i8* nonnull %10) #6
  %12 = load i32, i32* @n, align 4, !tbaa !5
  %13 = add nsw i32 %12, 1
  store i32 %13, i32* @n, align 4, !tbaa !5
  %14 = icmp eq i32 %12, 0
  %15 = select i1 %14, %struct.student* null, %struct.student* %8
  %16 = getelementptr inbounds %struct.student, %struct.student* %9, i64 0, i32 2
  store %struct.student* %15, %struct.student** %16, align 8
  %17 = tail call noalias align 16 dereferenceable_or_null(100) i8* @malloc(i64 100) #6
  %18 = bitcast i8* %17 to %struct.student*
  %19 = getelementptr inbounds %struct.student, %struct.student* %18, i64 0, i32 0, i64 0
  %20 = tail call i32 (i8*, ...) @__isoc99_scanf(i8* getelementptr inbounds ([3 x i8], [3 x i8]* @.str, i64 0, i64 0), i8* %19)
  %21 = tail call i32 @strcmp(i8* noundef nonnull dereferenceable(1) %19, i8* noundef nonnull dereferenceable(4) getelementptr inbounds ([4 x i8], [4 x i8]* @.str.1, i64 0, i64 0)) #7
  %22 = icmp eq i32 %21, 0
  br i1 %22, label %23, label %7, !llvm.loop !9

23:                                               ; preds = %7, %0
  %24 = phi %struct.student* [ null, %0 ], [ %9, %7 ]
  ret %struct.student* %24
}

; Function Attrs: inaccessiblememonly mustprogress nofree nounwind willreturn
declare noalias noundef align 16 i8* @malloc(i64 noundef) local_unnamed_addr #1

; Function Attrs: nofree nounwind
declare noundef i32 @__isoc99_scanf(i8* nocapture noundef readonly, ...) local_unnamed_addr #2

; Function Attrs: argmemonly mustprogress nofree nounwind readonly willreturn
declare i32 @strcmp(i8* nocapture, i8* nocapture) local_unnamed_addr #3

declare i32 @gets(...) local_unnamed_addr #4

; Function Attrs: nofree nounwind sspstrong uwtable
define dso_local void @print(%struct.student* %0) local_unnamed_addr #5 {
  %2 = load i32, i32* @n, align 4, !tbaa !5
  %3 = icmp sgt i32 %2, 0
  br i1 %3, label %4, label %16

4:                                                ; preds = %1, %4
  %5 = phi i32 [ %13, %4 ], [ 0, %1 ]
  %6 = phi %struct.student* [ %12, %4 ], [ %0, %1 ]
  %7 = getelementptr inbounds %struct.student, %struct.student* %6, i64 0, i32 0, i64 0
  %8 = tail call i32 (i8*, ...) @printf(i8* nonnull dereferenceable(1) getelementptr inbounds ([3 x i8], [3 x i8]* @.str, i64 0, i64 0), i8* %7)
  %9 = getelementptr inbounds %struct.student, %struct.student* %6, i64 0, i32 1, i64 0
  %10 = tail call i32 @puts(i8* nonnull %9)
  %11 = getelementptr inbounds %struct.student, %struct.student* %6, i64 0, i32 2
  %12 = load %struct.student*, %struct.student** %11, align 8, !tbaa !11
  %13 = add nuw nsw i32 %5, 1
  %14 = load i32, i32* @n, align 4, !tbaa !5
  %15 = icmp slt i32 %13, %14
  br i1 %15, label %4, label %16, !llvm.loop !14

16:                                               ; preds = %4, %1
  ret void
}

; Function Attrs: nofree nounwind
declare noundef i32 @printf(i8* nocapture noundef readonly, ...) local_unnamed_addr #2

; Function Attrs: nofree nounwind
declare noundef i32 @puts(i8* nocapture noundef readonly) local_unnamed_addr #2

; Function Attrs: nounwind sspstrong uwtable
define dso_local void @main() local_unnamed_addr #0 {
  %1 = tail call %struct.student* @creat()
  %2 = load i32, i32* @n, align 4, !tbaa !5
  %3 = icmp sgt i32 %2, 0
  br i1 %3, label %4, label %16

4:                                                ; preds = %0, %4
  %5 = phi i32 [ %13, %4 ], [ 0, %0 ]
  %6 = phi %struct.student* [ %12, %4 ], [ %1, %0 ]
  %7 = getelementptr inbounds %struct.student, %struct.student* %6, i64 0, i32 0, i64 0
  %8 = tail call i32 (i8*, ...) @printf(i8* nonnull dereferenceable(1) getelementptr inbounds ([3 x i8], [3 x i8]* @.str, i64 0, i64 0), i8* %7) #6
  %9 = getelementptr inbounds %struct.student, %struct.student* %6, i64 0, i32 1, i64 0
  %10 = tail call i32 @puts(i8* nonnull %9) #6
  %11 = getelementptr inbounds %struct.student, %struct.student* %6, i64 0, i32 2
  %12 = load %struct.student*, %struct.student** %11, align 8, !tbaa !11
  %13 = add nuw nsw i32 %5, 1
  %14 = load i32, i32* @n, align 4, !tbaa !5
  %15 = icmp slt i32 %13, %14
  br i1 %15, label %4, label %16, !llvm.loop !14

16:                                               ; preds = %4, %0
  ret void
}


!llvm.module.flags = !{!0, !1, !2, !3}
!llvm.ident = !{!4}

!0 = !{i32 1, !"wchar_size", i32 4}
!1 = !{i32 7, !"PIC Level", i32 2}
!2 = !{i32 7, !"PIE Level", i32 2}
!3 = !{i32 7, !"uwtable", i32 1}
!4 = !{!"clang version 13.0.0"}
!5 = !{!6, !6, i64 0}
!6 = !{!"int", !7, i64 0}
!7 = !{!"omnipotent char", !8, i64 0}
!8 = !{!"Simple C/C++ TBAA"}
!9 = distinct !{!9, !10}
!10 = !{!"llvm.loop.mustprogress"}
!11 = !{!12, !13, i64 80}
!12 = !{!"student", !7, i64 0, !7, i64 16, !13, i64 80}
!13 = !{!"any pointer", !7, i64 0}
!14 = distinct !{!14, !10}
